target datalayout = "e-m:e-p270:32:32-p271:32:32-p272:64:64-i64:64-i128:128-f80:128-n8:16:32:64-S128"
target triple = "x86_64-unknown-linux-gnu"

%struct.Node = type { i32, ptr, ptr, ptr, ptr, ptr, ptr, ptr, ptr, ptr, ptr, ptr, ptr, ptr, ptr, ptr, ptr, i8, ptr, ptr, ptr, ptr, ptr, ptr, i64, i64, ptr, ptr, ptr, ptr, ptr, ptr, ptr, i64, x86_fp80 }
%struct.Type = type { i32, i32, i32, i8, i8, ptr, ptr, ptr, ptr, i32, ptr, ptr, ptr, i8, i8, ptr, ptr, i8, ptr }

@.str = private unnamed_addr constant [28 x i8] c"not a compile-time constant\00", align 1

; Function Attrs: nounwind uwtable
define internal i64 @eval(ptr noundef %node) #0 {
entry:
  %node.addr = alloca ptr, align 8
  store ptr %node, ptr %node.addr, align 8
  %0 = load ptr, ptr %node.addr, align 8
  %call = call i64 @eval2(ptr noundef %0, ptr noundef null)
  ret i64 %call
}

; Function Attrs: nounwind uwtable
define internal double @eval_double(ptr noundef %node) #0 {
entry:
  %retval = alloca double, align 8
  %node.addr = alloca ptr, align 8
  store ptr %node, ptr %node.addr, align 8
  %0 = load ptr, ptr %node.addr, align 8
  call void @add_type(ptr noundef %0)
  %1 = load ptr, ptr %node.addr, align 8
  %ty = getelementptr inbounds %struct.Node, ptr %1, i32 0, i32 2
  %2 = load ptr, ptr %ty, align 16
  %call = call zeroext i1 @is_integer(ptr noundef %2)
  br i1 %call, label %if.then, label %if.end6

if.then:                                          ; preds = %entry
  %3 = load ptr, ptr %node.addr, align 8
  %ty1 = getelementptr inbounds %struct.Node, ptr %3, i32 0, i32 2
  %4 = load ptr, ptr %ty1, align 16
  %is_unsigned = getelementptr inbounds %struct.Type, ptr %4, i32 0, i32 3
  %5 = load i8, ptr %is_unsigned, align 4
  %tobool = trunc i8 %5 to i1
  br i1 %tobool, label %if.then2, label %if.end

if.then2:                                         ; preds = %if.then
  %6 = load ptr, ptr %node.addr, align 8
  %call3 = call i64 @eval(ptr noundef %6)
  %conv = uitofp i64 %call3 to double
  store double %conv, ptr %retval, align 8
  br label %return

if.end:                                           ; preds = %if.then
  %7 = load ptr, ptr %node.addr, align 8
  %call4 = call i64 @eval(ptr noundef %7)
  %conv5 = sitofp i64 %call4 to double
  store double %conv5, ptr %retval, align 8
  br label %return

if.end6:                                          ; preds = %entry
  %8 = load ptr, ptr %node.addr, align 8
  %kind = getelementptr inbounds %struct.Node, ptr %8, i32 0, i32 0
  %9 = load i32, ptr %kind, align 16
  switch i32 %9, label %sw.epilog [
    i32 1, label %sw.bb
    i32 2, label %sw.bb9
    i32 3, label %sw.bb14
    i32 4, label %sw.bb19
    i32 5, label %sw.bb24
    i32 17, label %sw.bb27
    i32 18, label %sw.bb33
    i32 43, label %sw.bb36
    i32 42, label %sw.bb47
  ]

sw.bb:                                            ; preds = %if.end6
  %10 = load ptr, ptr %node.addr, align 8
  %lhs = getelementptr inbounds %struct.Node, ptr %10, i32 0, i32 4
  %11 = load ptr, ptr %lhs, align 16
  %call7 = call double @eval_double(ptr noundef %11)
  %12 = load ptr, ptr %node.addr, align 8
  %rhs = getelementptr inbounds %struct.Node, ptr %12, i32 0, i32 5
  %13 = load ptr, ptr %rhs, align 8
  %call8 = call double @eval_double(ptr noundef %13)
  %add = fadd double %call7, %call8
  store double %add, ptr %retval, align 8
  br label %return

sw.bb9:                                           ; preds = %if.end6
  %14 = load ptr, ptr %node.addr, align 8
  %lhs10 = getelementptr inbounds %struct.Node, ptr %14, i32 0, i32 4
  %15 = load ptr, ptr %lhs10, align 16
  %call11 = call double @eval_double(ptr noundef %15)
  %16 = load ptr, ptr %node.addr, align 8
  %rhs12 = getelementptr inbounds %struct.Node, ptr %16, i32 0, i32 5
  %17 = load ptr, ptr %rhs12, align 8
  %call13 = call double @eval_double(ptr noundef %17)
  %sub = fsub double %call11, %call13
  store double %sub, ptr %retval, align 8
  br label %return

sw.bb14:                                          ; preds = %if.end6
  %18 = load ptr, ptr %node.addr, align 8
  %lhs15 = getelementptr inbounds %struct.Node, ptr %18, i32 0, i32 4
  %19 = load ptr, ptr %lhs15, align 16
  %call16 = call double @eval_double(ptr noundef %19)
  %20 = load ptr, ptr %node.addr, align 8
  %rhs17 = getelementptr inbounds %struct.Node, ptr %20, i32 0, i32 5
  %21 = load ptr, ptr %rhs17, align 8
  %call18 = call double @eval_double(ptr noundef %21)
  %mul = fmul double %call16, %call18
  store double %mul, ptr %retval, align 8
  br label %return

sw.bb19:                                          ; preds = %if.end6
  %22 = load ptr, ptr %node.addr, align 8
  %lhs20 = getelementptr inbounds %struct.Node, ptr %22, i32 0, i32 4
  %23 = load ptr, ptr %lhs20, align 16
  %call21 = call double @eval_double(ptr noundef %23)
  %24 = load ptr, ptr %node.addr, align 8
  %rhs22 = getelementptr inbounds %struct.Node, ptr %24, i32 0, i32 5
  %25 = load ptr, ptr %rhs22, align 8
  %call23 = call double @eval_double(ptr noundef %25)
  %div = fdiv double %call21, %call23
  store double %div, ptr %retval, align 8
  br label %return

sw.bb24:                                          ; preds = %if.end6
  %26 = load ptr, ptr %node.addr, align 8
  %lhs25 = getelementptr inbounds %struct.Node, ptr %26, i32 0, i32 4
  %27 = load ptr, ptr %lhs25, align 16
  %call26 = call double @eval_double(ptr noundef %27)
  %fneg = fneg double %call26
  store double %fneg, ptr %retval, align 8
  br label %return

sw.bb27:                                          ; preds = %if.end6
  %28 = load ptr, ptr %node.addr, align 8
  %cond = getelementptr inbounds %struct.Node, ptr %28, i32 0, i32 6
  %29 = load ptr, ptr %cond, align 16
  %call28 = call double @eval_double(ptr noundef %29)
  %tobool29 = fcmp une double %call28, 0.000000e+00
  br i1 %tobool29, label %cond.true, label %cond.false

cond.true:                                        ; preds = %sw.bb27
  %30 = load ptr, ptr %node.addr, align 8
  %then = getelementptr inbounds %struct.Node, ptr %30, i32 0, i32 7
  %31 = load ptr, ptr %then, align 8
  %call30 = call double @eval_double(ptr noundef %31)
  br label %cond.end

cond.false:                                       ; preds = %sw.bb27
  %32 = load ptr, ptr %node.addr, align 8
  %els = getelementptr inbounds %struct.Node, ptr %32, i32 0, i32 8
  %33 = load ptr, ptr %els, align 16
  %call31 = call double @eval_double(ptr noundef %33)
  br label %cond.end

cond.end:                                         ; preds = %cond.false, %cond.true
  %cond32 = phi double [ %call30, %cond.true ], [ %call31, %cond.false ]
  store double %cond32, ptr %retval, align 8
  br label %return

sw.bb33:                                          ; preds = %if.end6
  %34 = load ptr, ptr %node.addr, align 8
  %rhs34 = getelementptr inbounds %struct.Node, ptr %34, i32 0, i32 5
  %35 = load ptr, ptr %rhs34, align 8
  %call35 = call double @eval_double(ptr noundef %35)
  store double %call35, ptr %retval, align 8
  br label %return

sw.bb36:                                          ; preds = %if.end6
  %36 = load ptr, ptr %node.addr, align 8
  %lhs37 = getelementptr inbounds %struct.Node, ptr %36, i32 0, i32 4
  %37 = load ptr, ptr %lhs37, align 16
  %ty38 = getelementptr inbounds %struct.Node, ptr %37, i32 0, i32 2
  %38 = load ptr, ptr %ty38, align 16
  %call39 = call zeroext i1 @is_flonum(ptr noundef %38)
  br i1 %call39, label %if.then40, label %if.end43

if.then40:                                        ; preds = %sw.bb36
  %39 = load ptr, ptr %node.addr, align 8
  %lhs41 = getelementptr inbounds %struct.Node, ptr %39, i32 0, i32 4
  %40 = load ptr, ptr %lhs41, align 16
  %call42 = call double @eval_double(ptr noundef %40)
  store double %call42, ptr %retval, align 8
  br label %return

if.end43:                                         ; preds = %sw.bb36
  %41 = load ptr, ptr %node.addr, align 8
  %lhs44 = getelementptr inbounds %struct.Node, ptr %41, i32 0, i32 4
  %42 = load ptr, ptr %lhs44, align 16
  %call45 = call i64 @eval(ptr noundef %42)
  %conv46 = sitofp i64 %call45 to double
  store double %conv46, ptr %retval, align 8
  br label %return

sw.bb47:                                          ; preds = %if.end6
  %43 = load ptr, ptr %node.addr, align 8
  %fval = getelementptr inbounds %struct.Node, ptr %43, i32 0, i32 34
  %44 = load x86_fp80, ptr %fval, align 16
  %conv48 = fptrunc x86_fp80 %44 to double
  store double %conv48, ptr %retval, align 8
  br label %return

sw.epilog:                                        ; preds = %if.end6
  %45 = load ptr, ptr %node.addr, align 8
  %tok = getelementptr inbounds %struct.Node, ptr %45, i32 0, i32 3
  %46 = load ptr, ptr %tok, align 8
  call void (ptr, ptr, ...) @error_tok(ptr noundef %46, ptr noundef @.str) #9
  unreachable

return:                                           ; preds = %sw.bb47, %if.end43, %if.then40, %sw.bb33, %cond.end, %sw.bb24, %sw.bb19, %sw.bb14, %sw.bb9, %sw.bb, %if.end, %if.then2
  %47 = load double, ptr %retval, align 8
  ret double %47
}