; Function Attrs: nounwind uwtable
define internal fastcc double @eval_double(ptr noundef %node) unnamed_addr #0 {
entry:
  tail call void @add_type(ptr noundef %node) #13
  %ty43 = getelementptr inbounds %struct.Node, ptr %node, i64 0, i32 2
  %0 = load ptr, ptr %ty43, align 16
  %call44 = tail call zeroext i1 @is_integer(ptr noundef %0) #13
  br i1 %call44, label %if.then, label %if.end6

if.then:                                          ; preds = %tailrecurse.backedge, %entry
  %node.tr.lcssa42 = phi ptr [ %node, %entry ], [ %node.tr.be, %tailrecurse.backedge ]
  %ty.le = getelementptr inbounds %struct.Node, ptr %node.tr.lcssa42, i64 0, i32 2
  %1 = load ptr, ptr %ty.le, align 16
  %is_unsigned = getelementptr inbounds %struct.Type, ptr %1, i64 0, i32 3
  %2 = load i8, ptr %is_unsigned, align 4
  %3 = and i8 %2, 1
  %tobool.not = icmp eq i8 %3, 0
  %call.i24 = tail call fastcc i64 @eval2(ptr noundef nonnull %node.tr.lcssa42, ptr noundef null)
  br i1 %tobool.not, label %if.end, label %if.then2

if.then2:                                         ; preds = %if.then
  %conv = uitofp i64 %call.i24 to double
  br label %common.ret87

if.end:                                           ; preds = %if.then
  %conv5 = sitofp i64 %call.i24 to double
  br label %common.ret87

if.end6:                                          ; preds = %entry, %tailrecurse.backedge
  %node.tr45 = phi ptr [ %node.tr.be, %tailrecurse.backedge ], [ %node, %entry ]
  %4 = load i32, ptr %node.tr45, align 16
  switch i32 %4, label %sw.epilog [
    i32 1, label %sw.bb
    i32 2, label %sw.bb9
    i32 3, label %sw.bb14
    i32 4, label %sw.bb19
    i32 5, label %sw.bb24
    i32 17, label %sw.bb27
    i32 18, label %sw.bb33
    i32 43, label %sw.bb36
    i32 42, label %sw.bb47
  ]

common.ret87:                                     ; preds = %sw.bb47, %if.end43, %if.end, %if.then2, %sw.bb24, %sw.bb19, %sw.bb14, %sw.bb9, %sw.bb
  %common.ret87.op = phi double [ %add, %sw.bb ], [ %sub, %sw.bb9 ], [ %mul, %sw.bb14 ], [ %div, %sw.bb19 ], [ %fneg, %sw.bb24 ], [ %conv, %if.then2 ], [ %conv5, %if.end ], [ %conv48, %sw.bb47 ], [ %conv46, %if.end43 ]
  ret double %common.ret87.op

sw.bb:                                            ; preds = %if.end6
  %lhs = getelementptr inbounds %struct.Node, ptr %node.tr45, i64 0, i32 4
  %5 = load ptr, ptr %lhs, align 16
  %call7 = tail call fastcc double @eval_double(ptr noundef %5)
  %rhs = getelementptr inbounds %struct.Node, ptr %node.tr45, i64 0, i32 5
  %6 = load ptr, ptr %rhs, align 8
  %call8 = tail call fastcc double @eval_double(ptr noundef %6)
  %add = fadd double %call7, %call8
  br label %common.ret87

sw.bb9:                                           ; preds = %if.end6
  %lhs10 = getelementptr inbounds %struct.Node, ptr %node.tr45, i64 0, i32 4
  %7 = load ptr, ptr %lhs10, align 16
  %call11 = tail call fastcc double @eval_double(ptr noundef %7)
  %rhs12 = getelementptr inbounds %struct.Node, ptr %node.tr45, i64 0, i32 5
  %8 = load ptr, ptr %rhs12, align 8
  %call13 = tail call fastcc double @eval_double(ptr noundef %8)
  %sub = fsub double %call11, %call13
  br label %common.ret87

sw.bb14:                                          ; preds = %if.end6
  %lhs15 = getelementptr inbounds %struct.Node, ptr %node.tr45, i64 0, i32 4
  %9 = load ptr, ptr %lhs15, align 16
  %call16 = tail call fastcc double @eval_double(ptr noundef %9)
  %rhs17 = getelementptr inbounds %struct.Node, ptr %node.tr45, i64 0, i32 5
  %10 = load ptr, ptr %rhs17, align 8
  %call18 = tail call fastcc double @eval_double(ptr noundef %10)
  %mul = fmul double %call16, %call18
  br label %common.ret87

sw.bb19:                                          ; preds = %if.end6
  %lhs20 = getelementptr inbounds %struct.Node, ptr %node.tr45, i64 0, i32 4
  %11 = load ptr, ptr %lhs20, align 16
  %call21 = tail call fastcc double @eval_double(ptr noundef %11)
  %rhs22 = getelementptr inbounds %struct.Node, ptr %node.tr45, i64 0, i32 5
  %12 = load ptr, ptr %rhs22, align 8
  %call23 = tail call fastcc double @eval_double(ptr noundef %12)
  %div = fdiv double %call21, %call23
  br label %common.ret87

sw.bb24:                                          ; preds = %if.end6
  %lhs25 = getelementptr inbounds %struct.Node, ptr %node.tr45, i64 0, i32 4
  %13 = load ptr, ptr %lhs25, align 16
  %call26 = tail call fastcc double @eval_double(ptr noundef %13)
  %fneg = fneg double %call26
  br label %common.ret87

sw.bb27:                                          ; preds = %if.end6
  %cond = getelementptr inbounds %struct.Node, ptr %node.tr45, i64 0, i32 6
  %14 = load ptr, ptr %cond, align 16
  %call28 = tail call fastcc double @eval_double(ptr noundef %14)
  %tobool29 = fcmp une double %call28, 0.000000e+00
  br i1 %tobool29, label %cond.true, label %cond.false

cond.true:                                        ; preds = %sw.bb27
  %then = getelementptr inbounds %struct.Node, ptr %node.tr45, i64 0, i32 7
  br label %tailrecurse.backedge

tailrecurse.backedge:                             ; preds = %sw.bb36, %cond.true, %cond.false, %sw.bb33
  %node.tr.be.in = phi ptr [ %then, %cond.true ], [ %els, %cond.false ], [ %rhs34, %sw.bb33 ], [ %lhs37, %sw.bb36 ]
  %node.tr.be = load ptr, ptr %node.tr.be.in, align 8
  tail call void @add_type(ptr noundef %node.tr.be) #13
  %ty = getelementptr inbounds %struct.Node, ptr %node.tr.be, i64 0, i32 2
  %15 = load ptr, ptr %ty, align 16
  %call = tail call zeroext i1 @is_integer(ptr noundef %15) #13
  br i1 %call, label %if.then, label %if.end6

cond.false:                                       ; preds = %sw.bb27
  %els = getelementptr inbounds %struct.Node, ptr %node.tr45, i64 0, i32 8
  br label %tailrecurse.backedge

sw.bb33:                                          ; preds = %if.end6
  %rhs34 = getelementptr inbounds %struct.Node, ptr %node.tr45, i64 0, i32 5
  br label %tailrecurse.backedge

sw.bb36:                                          ; preds = %if.end6
  %lhs37 = getelementptr inbounds %struct.Node, ptr %node.tr45, i64 0, i32 4
  %16 = load ptr, ptr %lhs37, align 16
  %ty38 = getelementptr inbounds %struct.Node, ptr %16, i64 0, i32 2
  %17 = load ptr, ptr %ty38, align 16
  %call39 = tail call zeroext i1 @is_flonum(ptr noundef %17) #13
  br i1 %call39, label %tailrecurse.backedge, label %if.end43

if.end43:                                         ; preds = %sw.bb36
  %18 = load ptr, ptr %lhs37, align 16
  %call.i25 = tail call fastcc i64 @eval2(ptr noundef %18, ptr noundef null)
  %conv46 = sitofp i64 %call.i25 to double
  br label %common.ret87

sw.bb47:                                          ; preds = %if.end6
  %fval = getelementptr inbounds %struct.Node, ptr %node.tr45, i64 0, i32 34
  %19 = load x86_fp80, ptr %fval, align 16
  %conv48 = fptrunc x86_fp80 %19 to double
  br label %common.ret87

sw.epilog:                                        ; preds = %if.end6
  %tok = getelementptr inbounds %struct.Node, ptr %node.tr45, i64 0, i32 3
  %20 = load ptr, ptr %tok, align 8
  tail call void (ptr, ptr, ...) @error_tok(ptr noundef %20, ptr noundef nonnull @.str) #16
  unreachable
}